target datalayout = "e-m:e-p270:32:32-p271:32:32-p272:64:64-i64:64-i128:128-f80:128-n8:16:32:64-S128"
target triple = "x86_64-pc-linux-gnu"

%struct.PgStat_LocalState = type { ptr, ptr, ptr, %struct.PgStat_Snapshot }
%struct.PgStat_Snapshot = type { i32, i64, [13 x i8], %struct.PgStat_ArchiverStats, %struct.PgStat_BgWriterStats, %struct.PgStat_CheckpointerStats, %struct.PgStat_IO, [8 x %struct.PgStat_SLRUStats], %struct.PgStat_WalStats, [129 x i8], [129 x ptr], ptr, ptr }
%struct.PgStat_ArchiverStats = type { i64, [41 x i8], i64, i64, [41 x i8], i64, i64 }
%struct.PgStat_BgWriterStats = type { i64, i64, i64, i64 }
%struct.PgStat_CheckpointerStats = type { i64, i64, i64, i64, i64, i64, i64, i64, i64, i64, i64 }
%struct.PgStat_IO = type { i64, [17 x %struct.PgStat_BktypeIO] }
%struct.PgStat_BktypeIO = type { [3 x [5 x [8 x i64]]], [3 x [5 x [8 x i64]]], [3 x [5 x [8 x i64]]] }
%struct.PgStat_SLRUStats = type { i64, i64, i64, i64, i64, i64, i64, i64 }
%struct.PgStat_WalStats = type { i64, i64, i64, i64, i64, i64, i64, i64, i64 }
%struct.PgStat_ShmemControl = type { ptr, i64, i8, %struct.pg_atomic_uint64, %struct.PgStatShared_Archiver, %struct.PgStatShared_BgWriter, %struct.PgStatShared_Checkpointer, %struct.PgStatShared_IO, %struct.PgStatShared_SLRU, %struct.PgStatShared_Wal, [129 x ptr] }
%struct.pg_atomic_uint64 = type { i64 }
%struct.PgStatShared_Archiver = type { %struct.LWLock, i32, %struct.PgStat_ArchiverStats, %struct.PgStat_ArchiverStats }
%struct.LWLock = type { i16, %struct.pg_atomic_uint32, %struct.proclist_head }
%struct.pg_atomic_uint32 = type { i32 }
%struct.proclist_head = type { i32, i32 }
%struct.PgStatShared_BgWriter = type { %struct.LWLock, i32, %struct.PgStat_BgWriterStats, %struct.PgStat_BgWriterStats }
%struct.PgStatShared_Checkpointer = type { %struct.LWLock, i32, %struct.PgStat_CheckpointerStats, %struct.PgStat_CheckpointerStats }
%struct.PgStatShared_IO = type { [17 x %struct.LWLock], %struct.PgStat_IO }
%struct.PgStatShared_SLRU = type { %struct.LWLock, [8 x %struct.PgStat_SLRUStats] }
%struct.PgStatShared_Wal = type { %struct.LWLock, %struct.PgStat_WalStats }

@pgStatLocal = external global %struct.PgStat_LocalState, align 8
@CritSectionCount = external global i32, align 4

; Function Attrs: inlinehint nounwind uwtable
define internal void @pgstat_end_changecount_write(ptr noundef %0) #3 {
  %2 = alloca ptr, align 8
  store ptr %0, ptr %2, align 8
  call void asm sideeffect "", "~{memory},~{dirflag},~{fpsr},~{flags}"() #6, !srcloc !7
  %3 = load ptr, ptr %2, align 8
  %4 = load i32, ptr %3, align 4
  %5 = add i32 %4, 1
  store i32 %5, ptr %3, align 4
  br label %6

6:                                                ; preds = %1
  %7 = load volatile i32, ptr @CritSectionCount, align 4
  %8 = add i32 %7, -1
  store volatile i32 %8, ptr @CritSectionCount, align 4
  br label %9

9:                                                ; preds = %6
  ret void
}

; Function Attrs: inlinehint nounwind uwtable
define internal void @pgstat_begin_changecount_write(ptr noundef %0) #3 {
  %2 = alloca ptr, align 8
  store ptr %0, ptr %2, align 8
  %3 = load volatile i32, ptr @CritSectionCount, align 4
  %4 = add i32 %3, 1
  store volatile i32 %4, ptr @CritSectionCount, align 4
  %5 = load ptr, ptr %2, align 8
  %6 = load i32, ptr %5, align 4
  %7 = add i32 %6, 1
  store i32 %7, ptr %5, align 4
  call void asm sideeffect "", "~{memory},~{dirflag},~{fpsr},~{flags}"() #6, !srcloc !6
  ret void
}

; Function Attrs: nounwind uwtable
define dso_local void @pgstat_report_archiver(ptr noundef %0, i1 noundef zeroext %1) #0 {
  %3 = alloca ptr, align 8
  %4 = alloca i8, align 1
  %5 = alloca ptr, align 8
  %6 = alloca i64, align 8
  store ptr %0, ptr %3, align 8
  %7 = zext i1 %1 to i8
  store i8 %7, ptr %4, align 1
  call void @llvm.lifetime.start.p0(i64 8, ptr %5) #6
  %8 = load ptr, ptr @pgStatLocal, align 8
  %9 = getelementptr inbounds nuw %struct.PgStat_ShmemControl, ptr %8, i32 0, i32 4
  store ptr %9, ptr %5, align 8
  call void @llvm.lifetime.start.p0(i64 8, ptr %6) #6
  %10 = call i64 @GetCurrentTimestamp()
  store i64 %10, ptr %6, align 8
  %11 = load ptr, ptr %5, align 8
  %12 = getelementptr inbounds nuw %struct.PgStatShared_Archiver, ptr %11, i32 0, i32 1
  call void @pgstat_begin_changecount_write(ptr noundef %12)
  %13 = load i8, ptr %4, align 1, !range !4, !noundef !5
  %14 = trunc i8 %13 to i1
  br i1 %14, label %15, label %29

15:                                               ; preds = %2
  %16 = load ptr, ptr %5, align 8
  %17 = getelementptr inbounds nuw %struct.PgStatShared_Archiver, ptr %16, i32 0, i32 2
  %18 = getelementptr inbounds nuw %struct.PgStat_ArchiverStats, ptr %17, i32 0, i32 3
  %19 = load i64, ptr %18, align 8
  %20 = add i64 %19, 1
  store i64 %20, ptr %18, align 8
  %21 = load ptr, ptr %5, align 8
  %22 = getelementptr inbounds nuw %struct.PgStatShared_Archiver, ptr %21, i32 0, i32 2
  %23 = getelementptr inbounds nuw %struct.PgStat_ArchiverStats, ptr %22, i32 0, i32 4
  %24 = load ptr, ptr %3, align 8
  call void @llvm.memcpy.p0.p0.i64(ptr align 8 %23, ptr align 1 %24, i64 41, i1 false)
  %25 = load i64, ptr %6, align 8
  %26 = load ptr, ptr %5, align 8
  %27 = getelementptr inbounds nuw %struct.PgStatShared_Archiver, ptr %26, i32 0, i32 2
  %28 = getelementptr inbounds nuw %struct.PgStat_ArchiverStats, ptr %27, i32 0, i32 5
  store i64 %25, ptr %28, align 8
  br label %43

29:                                               ; preds = %2
  %30 = load ptr, ptr %5, align 8
  %31 = getelementptr inbounds nuw %struct.PgStatShared_Archiver, ptr %30, i32 0, i32 2
  %32 = getelementptr inbounds nuw %struct.PgStat_ArchiverStats, ptr %31, i32 0, i32 0
  %33 = load i64, ptr %32, align 8
  %34 = add i64 %33, 1
  store i64 %34, ptr %32, align 8
  %35 = load ptr, ptr %5, align 8
  %36 = getelementptr inbounds nuw %struct.PgStatShared_Archiver, ptr %35, i32 0, i32 2
  %37 = getelementptr inbounds nuw %struct.PgStat_ArchiverStats, ptr %36, i32 0, i32 1
  %38 = load ptr, ptr %3, align 8
  call void @llvm.memcpy.p0.p0.i64(ptr align 8 %37, ptr align 1 %38, i64 41, i1 false)
  %39 = load i64, ptr %6, align 8
  %40 = load ptr, ptr %5, align 8
  %41 = getelementptr inbounds nuw %struct.PgStatShared_Archiver, ptr %40, i32 0, i32 2
  %42 = getelementptr inbounds nuw %struct.PgStat_ArchiverStats, ptr %41, i32 0, i32 2
  store i64 %39, ptr %42, align 8
  br label %43

43:                                               ; preds = %29, %15
  %44 = load ptr, ptr %5, align 8
  %45 = getelementptr inbounds nuw %struct.PgStatShared_Archiver, ptr %44, i32 0, i32 1
  call void @pgstat_end_changecount_write(ptr noundef %45)
  call void @llvm.lifetime.end.p0(i64 8, ptr %6) #6
  call void @llvm.lifetime.end.p0(i64 8, ptr %5) #6
  ret void
}