; Function Attrs: nounwind uwtable
define dso_local void @pgstat_report_archiver(ptr noundef readonly captures(none) %0, i1 noundef zeroext %1) local_unnamed_addr #0 {
  %3 = load ptr, ptr @pgStatLocal, align 8
  %4 = tail call i64 @GetCurrentTimestamp() #3
  %5 = getelementptr inbounds nuw i8, ptr %3, i64 48
  %6 = load volatile i32, ptr @CritSectionCount, align 4
  %7 = add i32 %6, 1
  store volatile i32 %7, ptr @CritSectionCount, align 4
  %8 = load i32, ptr %5, align 4
  %9 = add i32 %8, 1
  store i32 %9, ptr %5, align 4
  tail call void asm sideeffect "", "~{memory},~{dirflag},~{fpsr},~{flags}"() #3, !srcloc !4
  %. = select i1 %1, i64 120, i64 56
  %.17 = select i1 %1, i64 128, i64 64
  %.18 = select i1 %1, i64 176, i64 112
  %10 = getelementptr inbounds nuw i8, ptr %3, i64 %.
  %11 = load i64, ptr %10, align 8
  %12 = add i64 %11, 1
  store i64 %12, ptr %10, align 8
  %13 = getelementptr inbounds nuw i8, ptr %3, i64 %.17
  tail call void @llvm.memcpy.p0.p0.i64(ptr noundef nonnull align 8 dereferenceable(41) %13, ptr noundef nonnull align 1 dereferenceable(41) %0, i64 41, i1 false)
  %14 = getelementptr inbounds nuw i8, ptr %3, i64 %.18
  store i64 %4, ptr %14, align 8
  tail call void asm sideeffect "", "~{memory},~{dirflag},~{fpsr},~{flags}"() #3, !srcloc !5
  %15 = load i32, ptr %5, align 4
  %16 = add i32 %15, 1
  store i32 %16, ptr %5, align 4
  %17 = load volatile i32, ptr @CritSectionCount, align 4
  %18 = add i32 %17, -1
  store volatile i32 %18, ptr @CritSectionCount, align 4
  ret void
}